; Function Attrs: mustprogress uwtable
define dso_local void @_ZN5ImGui15TreeNodeSetOpenEjb(i32 noundef %0, i1 noundef zeroext %1) local_unnamed_addr #5 {
  %3 = load ptr, ptr @GImGui, align 8, !tbaa !4
  %4 = getelementptr inbounds nuw i8, ptr %3, i64 4928
  %5 = load ptr, ptr %4, align 8, !tbaa !9
  %6 = getelementptr inbounds nuw i8, ptr %5, i64 440
  %7 = load ptr, ptr %6, align 8, !tbaa !552
  %8 = zext i1 %1 to i32
  tail call void @_ZN12ImGuiStorage6SetIntEji(ptr noundef nonnull align 8 dereferenceable(16) %7, i32 noundef %0, i32 noundef %8)
  ret void
}